; ModuleID = '38/1242.c'
source_filename = "38/1242.c"
target datalayout = "e-m:e-p270:32:32-p271:32:32-p272:64:64-i64:64-f80:128-n8:16:32:64-S128"
target triple = "x86_64-pc-linux-gnu"

@.str = private unnamed_addr constant [3 x i8] c"%d\00", align 1
@.str.1 = private unnamed_addr constant [4 x i8] c"%lf\00", align 1
@.str.2 = private unnamed_addr constant [6 x i8] c"%.5f\0A\00", align 1

; Function Attrs: noinline nounwind uwtable
define dso_local void @main() #0 {
  %1 = alloca i32, align 4
  %2 = alloca i32, align 4
  %3 = alloca i32, align 4
  %4 = alloca i32, align 4
  %5 = alloca double*, align 8
  %6 = alloca double, align 8
  %7 = alloca double, align 8
  store double* null, double** %5, align 8
  %8 = call i32 (i8*, ...) @__isoc99_scanf(i8* getelementptr inbounds ([3 x i8], [3 x i8]* @.str, i64 0, i64 0), i32* %1)
  store i32 1, i32* %3, align 4
  br label %9

9:                                                ; preds = %79, %0
  %10 = load i32, i32* %3, align 4
  %11 = load i32, i32* %1, align 4
  %12 = icmp sle i32 %10, %11
  br i1 %12, label %13, label %82

13:                                               ; preds = %9
  %14 = call i32 (i8*, ...) @__isoc99_scanf(i8* getelementptr inbounds ([3 x i8], [3 x i8]* @.str, i64 0, i64 0), i32* %2)
  store double 0.000000e+00, double* %6, align 8
  store double 0.000000e+00, double* %7, align 8
  %15 = call noalias i8* @calloc(i64 100, i64 8) #3
  %16 = bitcast i8* %15 to double*
  store double* %16, double** %5, align 8
  store i32 1, i32* %4, align 4
  br label %17

17:                                               ; preds = %36, %13
  %18 = load i32, i32* %4, align 4
  %19 = load i32, i32* %2, align 4
  %20 = icmp sle i32 %18, %19
  br i1 %20, label %21, label %39

21:                                               ; preds = %17
  %22 = load double*, double** %5, align 8
  %23 = load i32, i32* %4, align 4
  %24 = sext i32 %23 to i64
  %25 = getelementptr inbounds double, double* %22, i64 %24
  %26 = getelementptr inbounds double, double* %25, i64 -1
  %27 = call i32 (i8*, ...) @__isoc99_scanf(i8* getelementptr inbounds ([4 x i8], [4 x i8]* @.str.1, i64 0, i64 0), double* %26)
  %28 = load double, double* %6, align 8
  %29 = load double*, double** %5, align 8
  %30 = load i32, i32* %4, align 4
  %31 = sext i32 %30 to i64
  %32 = getelementptr inbounds double, double* %29, i64 %31
  %33 = getelementptr inbounds double, double* %32, i64 -1
  %34 = load double, double* %33, align 8
  %35 = fadd double %28, %34
  store double %35, double* %6, align 8
  br label %36

36:                                               ; preds = %21
  %37 = load i32, i32* %4, align 4
  %38 = add nsw i32 %37, 1
  store i32 %38, i32* %4, align 4
  br label %17

39:                                               ; preds = %17
  %40 = load double, double* %6, align 8
  %41 = load i32, i32* %2, align 4
  %42 = sitofp i32 %41 to double
  %43 = fdiv double %40, %42
  store double %43, double* %6, align 8
  store i32 1, i32* %4, align 4
  br label %44

44:                                               ; preds = %68, %39
  %45 = load i32, i32* %4, align 4
  %46 = load i32, i32* %2, align 4
  %47 = icmp sle i32 %45, %46
  br i1 %47, label %48, label %71

48:                                               ; preds = %44
  %49 = load double, double* %7, align 8
  %50 = load double*, double** %5, align 8
  %51 = load i32, i32* %4, align 4
  %52 = sext i32 %51 to i64
  %53 = getelementptr inbounds double, double* %50, i64 %52
  %54 = getelementptr inbounds double, double* %53, i64 -1
  %55 = load double, double* %54, align 8
  %56 = load double, double* %6, align 8
  %57 = fsub double %55, %56
  %58 = load double*, double** %5, align 8
  %59 = load i32, i32* %4, align 4
  %60 = sext i32 %59 to i64
  %61 = getelementptr inbounds double, double* %58, i64 %60
  %62 = getelementptr inbounds double, double* %61, i64 -1
  %63 = load double, double* %62, align 8
  %64 = load double, double* %6, align 8
  %65 = fsub double %63, %64
  %66 = fmul double %57, %65
  %67 = fadd double %49, %66
  store double %67, double* %7, align 8
  br label %68

68:                                               ; preds = %48
  %69 = load i32, i32* %4, align 4
  %70 = add nsw i32 %69, 1
  store i32 %70, i32* %4, align 4
  br label %44

71:                                               ; preds = %44
  %72 = load double, double* %7, align 8
  %73 = load i32, i32* %2, align 4
  %74 = sitofp i32 %73 to double
  %75 = fdiv double %72, %74
  %76 = call double @sqrt(double %75) #3
  store double %76, double* %7, align 8
  %77 = load double, double* %7, align 8
  %78 = call i32 (i8*, ...) @printf(i8* getelementptr inbounds ([6 x i8], [6 x i8]* @.str.2, i64 0, i64 0), double %77)
  br label %79

79:                                               ; preds = %71
  %80 = load i32, i32* %3, align 4
  %81 = add nsw i32 %80, 1
  store i32 %81, i32* %3, align 4
  br label %9

82:                                               ; preds = %9
  ret void
}

declare dso_local i32 @__isoc99_scanf(i8*, ...) #1

; Function Attrs: nounwind
declare dso_local noalias i8* @calloc(i64, i64) #2

; Function Attrs: nounwind
declare dso_local double @sqrt(double) #2

declare dso_local i32 @printf(i8*, ...) #1


!llvm.module.flags = !{!0}
!llvm.ident = !{!1}

!0 = !{i32 1, !"wchar_size", i32 4}
!1 = !{!"clang version 10.0.0-4ubuntu1 "}
